target datalayout = "e-m:e-p270:32:32-p271:32:32-p272:64:64-i64:64-i128:128-f80:128-n8:16:32:64-S128"
target triple = "x86_64-pc-linux-gnu"

%struct.H5S_pnt_node_t = type { ptr, [0 x i64] }
%struct.H5S_sel_iter_t = type { ptr, i32, [32 x i64], [32 x i64], i64, i64, i32, %union.anon.1 }
%union.anon.1 = type { %struct.H5S_hyper_iter_t }
%struct.H5S_hyper_iter_t = type { [32 x i64], [32 x i64], i32, i8, [32 x %struct.H5S_hyper_dim_t], [32 x i64], [32 x i64], [32 x i8], [32 x i64], ptr, [32 x ptr] }
%struct.H5S_hyper_dim_t = type { i64, i64, i64, i64 }
%struct.H5S_point_iter_t = type { ptr, ptr }

@H5S_init_g = external global i8, align 1
@H5_libterm_g = external global i8, align 1

; Function Attrs: nounwind uwtable
define internal i32 @H5S__point_iter_get_seq_list(ptr noundef %0, i64 noundef %1, i64 noundef %2, ptr noundef %3, ptr noundef %4, ptr noundef %5, ptr noundef %6) #0 {
  %8 = alloca ptr, align 8
  %9 = alloca i64, align 8
  %10 = alloca i64, align 8
  %11 = alloca ptr, align 8
  %12 = alloca ptr, align 8
  %13 = alloca ptr, align 8
  %14 = alloca ptr, align 8
  %15 = alloca i64, align 8
  %16 = alloca i64, align 8
  %17 = alloca ptr, align 8
  %18 = alloca i32, align 4
  %19 = alloca i64, align 8
  %20 = alloca i64, align 8
  %21 = alloca i64, align 8
  %22 = alloca i32, align 4
  %23 = alloca i32, align 4
  store ptr %0, ptr %8, align 8, !tbaa !80
  store i64 %1, ptr %9, align 8, !tbaa !23
  store i64 %2, ptr %10, align 8, !tbaa !23
  store ptr %3, ptr %11, align 8, !tbaa !51
  store ptr %4, ptr %12, align 8, !tbaa !51
  store ptr %5, ptr %13, align 8, !tbaa !51
  store ptr %6, ptr %14, align 8, !tbaa !51
  call void @llvm.lifetime.start.p0(i64 8, ptr %15) #7
  call void @llvm.lifetime.start.p0(i64 8, ptr %16) #7
  call void @llvm.lifetime.start.p0(i64 8, ptr %17) #7
  call void @llvm.lifetime.start.p0(i64 4, ptr %18) #7
  call void @llvm.lifetime.start.p0(i64 8, ptr %19) #7
  call void @llvm.lifetime.start.p0(i64 8, ptr %20) #7
  call void @llvm.lifetime.start.p0(i64 8, ptr %21) #7
  call void @llvm.lifetime.start.p0(i64 4, ptr %22) #7
  call void @llvm.lifetime.start.p0(i64 4, ptr %23) #7
  store i32 0, ptr %23, align 4, !tbaa !10
  %24 = load i8, ptr @H5S_init_g, align 1, !tbaa !8, !range !12, !noundef !13
  %25 = trunc i8 %24 to i1
  br i1 %25, label %30, label %26

26:                                               ; preds = %7
  %27 = load i8, ptr @H5_libterm_g, align 1, !tbaa !8, !range !12, !noundef !13
  %28 = trunc i8 %27 to i1
  %29 = xor i1 %28, true
  br label %30

30:                                               ; preds = %26, %7
  %31 = phi i1 [ true, %7 ], [ %29, %26 ]
  %32 = xor i1 %31, true
  %33 = xor i1 %32, true
  %34 = zext i1 %33 to i32
  %35 = sext i32 %34 to i64
  %36 = call i64 @llvm.expect.i64(i64 %35, i64 1)
  %37 = icmp ne i64 %36, 0
  br i1 %37, label %38, label %201

38:                                               ; preds = %30
  %39 = load ptr, ptr %8, align 8, !tbaa !80
  %40 = getelementptr inbounds nuw %struct.H5S_sel_iter_t, ptr %39, i32 0, i32 4
  %41 = load i64, ptr %40, align 8, !tbaa !98
  %42 = load i64, ptr %10, align 8, !tbaa !23
  %43 = icmp ult i64 %41, %42
  br i1 %43, label %44, label %48

44:                                               ; preds = %38
  %45 = load ptr, ptr %8, align 8, !tbaa !80
  %46 = getelementptr inbounds nuw %struct.H5S_sel_iter_t, ptr %45, i32 0, i32 4
  %47 = load i64, ptr %46, align 8, !tbaa !98
  br label %50

48:                                               ; preds = %38
  %49 = load i64, ptr %10, align 8, !tbaa !23
  br label %50

50:                                               ; preds = %48, %44
  %51 = phi i64 [ %47, %44 ], [ %49, %48 ]
  store i64 %51, ptr %15, align 8, !tbaa !23
  store i64 %51, ptr %16, align 8, !tbaa !23
  %52 = load ptr, ptr %8, align 8, !tbaa !80
  %53 = getelementptr inbounds nuw %struct.H5S_sel_iter_t, ptr %52, i32 0, i32 1
  %54 = load i32, ptr %53, align 8, !tbaa !97
  store i32 %54, ptr %18, align 4, !tbaa !10
  %55 = load ptr, ptr %8, align 8, !tbaa !80
  %56 = getelementptr inbounds nuw %struct.H5S_sel_iter_t, ptr %55, i32 0, i32 7
  %57 = getelementptr inbounds nuw %struct.H5S_point_iter_t, ptr %56, i32 0, i32 1
  %58 = load ptr, ptr %57, align 8, !tbaa !14
  store ptr %58, ptr %17, align 8, !tbaa !38
  store i64 0, ptr %21, align 8, !tbaa !23
  br label %59

59:                                               ; preds = %190, %50
  %60 = load ptr, ptr %17, align 8, !tbaa !38
  %61 = icmp ne ptr null, %60
  br i1 %61, label %62, label %194

62:                                               ; preds = %59
  %63 = load i32, ptr %18, align 4, !tbaa !10
  %64 = sub i32 %63, 1
  store i32 %64, ptr %22, align 4, !tbaa !10
  %65 = load ptr, ptr %8, align 8, !tbaa !80
  %66 = getelementptr inbounds nuw %struct.H5S_sel_iter_t, ptr %65, i32 0, i32 5
  %67 = load i64, ptr %66, align 8, !tbaa !100
  store i64 %67, ptr %19, align 8, !tbaa !23
  store i64 0, ptr %20, align 8, !tbaa !23
  br label %68

68:                                               ; preds = %97, %62
  %69 = load i32, ptr %22, align 4, !tbaa !10
  %70 = icmp sge i32 %69, 0
  br i1 %70, label %71, label %100

71:                                               ; preds = %68
  %72 = load ptr, ptr %17, align 8, !tbaa !38
  %73 = getelementptr inbounds nuw %struct.H5S_pnt_node_t, ptr %72, i32 0, i32 1
  %74 = load i32, ptr %22, align 4, !tbaa !10
  %75 = sext i32 %74 to i64
  %76 = getelementptr inbounds [0 x i64], ptr %73, i64 0, i64 %75
  %77 = load i64, ptr %76, align 8, !tbaa !23
  %78 = load ptr, ptr %8, align 8, !tbaa !80
  %79 = getelementptr inbounds nuw %struct.H5S_sel_iter_t, ptr %78, i32 0, i32 3
  %80 = load i32, ptr %22, align 4, !tbaa !10
  %81 = sext i32 %80 to i64
  %82 = getelementptr inbounds [32 x i64], ptr %79, i64 0, i64 %81
  %83 = load i64, ptr %82, align 8, !tbaa !23
  %84 = add nsw i64 %77, %83
  %85 = load i64, ptr %19, align 8, !tbaa !23
  %86 = mul i64 %84, %85
  %87 = load i64, ptr %20, align 8, !tbaa !23
  %88 = add i64 %87, %86
  store i64 %88, ptr %20, align 8, !tbaa !23
  %89 = load ptr, ptr %8, align 8, !tbaa !80
  %90 = getelementptr inbounds nuw %struct.H5S_sel_iter_t, ptr %89, i32 0, i32 2
  %91 = load i32, ptr %22, align 4, !tbaa !10
  %92 = sext i32 %91 to i64
  %93 = getelementptr inbounds [32 x i64], ptr %90, i64 0, i64 %92
  %94 = load i64, ptr %93, align 8, !tbaa !23
  %95 = load i64, ptr %19, align 8, !tbaa !23
  %96 = mul i64 %95, %94
  store i64 %96, ptr %19, align 8, !tbaa !23
  br label %97

97:                                               ; preds = %71
  %98 = load i32, ptr %22, align 4, !tbaa !10
  %99 = add nsw i32 %98, -1
  store i32 %99, ptr %22, align 4, !tbaa !10
  br label %68, !llvm.loop !101

100:                                              ; preds = %68
  %101 = load i64, ptr %21, align 8, !tbaa !23
  %102 = icmp ugt i64 %101, 0
  br i1 %102, label %103, label %156

103:                                              ; preds = %100
  %104 = load ptr, ptr %8, align 8, !tbaa !80
  %105 = getelementptr inbounds nuw %struct.H5S_sel_iter_t, ptr %104, i32 0, i32 6
  %106 = load i32, ptr %105, align 8, !tbaa !82
  %107 = and i32 %106, 1
  %108 = icmp ne i32 %107, 0
  br i1 %108, label %109, label %118

109:                                              ; preds = %103
  %110 = load i64, ptr %20, align 8, !tbaa !23
  %111 = load ptr, ptr %13, align 8, !tbaa !51
  %112 = load i64, ptr %21, align 8, !tbaa !23
  %113 = sub i64 %112, 1
  %114 = getelementptr inbounds nuw i64, ptr %111, i64 %113
  %115 = load i64, ptr %114, align 8, !tbaa !23
  %116 = icmp ult i64 %110, %115
  br i1 %116, label %117, label %118

117:                                              ; preds = %109
  br label %194

118:                                              ; preds = %109, %103
  %119 = load i64, ptr %20, align 8, !tbaa !23
  %120 = load ptr, ptr %13, align 8, !tbaa !51
  %121 = load i64, ptr %21, align 8, !tbaa !23
  %122 = sub i64 %121, 1
  %123 = getelementptr inbounds nuw i64, ptr %120, i64 %122
  %124 = load i64, ptr %123, align 8, !tbaa !23
  %125 = load ptr, ptr %14, align 8, !tbaa !51
  %126 = load i64, ptr %21, align 8, !tbaa !23
  %127 = sub i64 %126, 1
  %128 = getelementptr inbounds nuw i64, ptr %125, i64 %127
  %129 = load i64, ptr %128, align 8, !tbaa !23
  %130 = add i64 %124, %129
  %131 = icmp eq i64 %119, %130
  br i1 %131, label %132, label %142

132:                                              ; preds = %118
  %133 = load ptr, ptr %8, align 8, !tbaa !80
  %134 = getelementptr inbounds nuw %struct.H5S_sel_iter_t, ptr %133, i32 0, i32 5
  %135 = load i64, ptr %134, align 8, !tbaa !100
  %136 = load ptr, ptr %14, align 8, !tbaa !51
  %137 = load i64, ptr %21, align 8, !tbaa !23
  %138 = sub i64 %137, 1
  %139 = getelementptr inbounds nuw i64, ptr %136, i64 %138
  %140 = load i64, ptr %139, align 8, !tbaa !23
  %141 = add i64 %140, %135
  store i64 %141, ptr %139, align 8, !tbaa !23
  br label %155

142:                                              ; preds = %118
  %143 = load i64, ptr %20, align 8, !tbaa !23
  %144 = load ptr, ptr %13, align 8, !tbaa !51
  %145 = load i64, ptr %21, align 8, !tbaa !23
  %146 = getelementptr inbounds nuw i64, ptr %144, i64 %145
  store i64 %143, ptr %146, align 8, !tbaa !23
  %147 = load ptr, ptr %8, align 8, !tbaa !80
  %148 = getelementptr inbounds nuw %struct.H5S_sel_iter_t, ptr %147, i32 0, i32 5
  %149 = load i64, ptr %148, align 8, !tbaa !100
  %150 = load ptr, ptr %14, align 8, !tbaa !51
  %151 = load i64, ptr %21, align 8, !tbaa !23
  %152 = getelementptr inbounds nuw i64, ptr %150, i64 %151
  store i64 %149, ptr %152, align 8, !tbaa !23
  %153 = load i64, ptr %21, align 8, !tbaa !23
  %154 = add i64 %153, 1
  store i64 %154, ptr %21, align 8, !tbaa !23
  br label %155

155:                                              ; preds = %142, %132
  br label %169

156:                                              ; preds = %100
  %157 = load i64, ptr %20, align 8, !tbaa !23
  %158 = load ptr, ptr %13, align 8, !tbaa !51
  %159 = load i64, ptr %21, align 8, !tbaa !23
  %160 = getelementptr inbounds nuw i64, ptr %158, i64 %159
  store i64 %157, ptr %160, align 8, !tbaa !23
  %161 = load ptr, ptr %8, align 8, !tbaa !80
  %162 = getelementptr inbounds nuw %struct.H5S_sel_iter_t, ptr %161, i32 0, i32 5
  %163 = load i64, ptr %162, align 8, !tbaa !100
  %164 = load ptr, ptr %14, align 8, !tbaa !51
  %165 = load i64, ptr %21, align 8, !tbaa !23
  %166 = getelementptr inbounds nuw i64, ptr %164, i64 %165
  store i64 %163, ptr %166, align 8, !tbaa !23
  %167 = load i64, ptr %21, align 8, !tbaa !23
  %168 = add i64 %167, 1
  store i64 %168, ptr %21, align 8, !tbaa !23
  br label %169

169:                                              ; preds = %156, %155
  %170 = load i64, ptr %15, align 8, !tbaa !23
  %171 = add i64 %170, -1
  store i64 %171, ptr %15, align 8, !tbaa !23
  %172 = load ptr, ptr %17, align 8, !tbaa !38
  %173 = getelementptr inbounds nuw %struct.H5S_pnt_node_t, ptr %172, i32 0, i32 0
  %174 = load ptr, ptr %173, align 8, !tbaa !38
  %175 = load ptr, ptr %8, align 8, !tbaa !80
  %176 = getelementptr inbounds nuw %struct.H5S_sel_iter_t, ptr %175, i32 0, i32 7
  %177 = getelementptr inbounds nuw %struct.H5S_point_iter_t, ptr %176, i32 0, i32 1
  store ptr %174, ptr %177, align 8, !tbaa !14
  %178 = load ptr, ptr %8, align 8, !tbaa !80
  %179 = getelementptr inbounds nuw %struct.H5S_sel_iter_t, ptr %178, i32 0, i32 4
  %180 = load i64, ptr %179, align 8, !tbaa !98
  %181 = add i64 %180, -1
  store i64 %181, ptr %179, align 8, !tbaa !98
  %182 = load i64, ptr %21, align 8, !tbaa !23
  %183 = load i64, ptr %9, align 8, !tbaa !23
  %184 = icmp eq i64 %182, %183
  br i1 %184, label %185, label %186

185:                                              ; preds = %169
  br label %194

186:                                              ; preds = %169
  %187 = load i64, ptr %15, align 8, !tbaa !23
  %188 = icmp eq i64 %187, 0
  br i1 %188, label %189, label %190

189:                                              ; preds = %186
  br label %194

190:                                              ; preds = %186
  %191 = load ptr, ptr %17, align 8, !tbaa !38
  %192 = getelementptr inbounds nuw %struct.H5S_pnt_node_t, ptr %191, i32 0, i32 0
  %193 = load ptr, ptr %192, align 8, !tbaa !38
  store ptr %193, ptr %17, align 8, !tbaa !38
  br label %59, !llvm.loop !102

194:                                              ; preds = %189, %185, %117, %59
  %195 = load i64, ptr %21, align 8, !tbaa !23
  %196 = load ptr, ptr %11, align 8, !tbaa !51
  store i64 %195, ptr %196, align 8, !tbaa !23
  %197 = load i64, ptr %16, align 8, !tbaa !23
  %198 = load i64, ptr %15, align 8, !tbaa !23
  %199 = sub i64 %197, %198
  %200 = load ptr, ptr %12, align 8, !tbaa !51
  store i64 %199, ptr %200, align 8, !tbaa !23
  br label %201

201:                                              ; preds = %194, %30
  %202 = load i32, ptr %23, align 4, !tbaa !10
  call void @llvm.lifetime.end.p0(i64 4, ptr %23) #7
  call void @llvm.lifetime.end.p0(i64 4, ptr %22) #7
  call void @llvm.lifetime.end.p0(i64 8, ptr %21) #7
  call void @llvm.lifetime.end.p0(i64 8, ptr %20) #7
  call void @llvm.lifetime.end.p0(i64 8, ptr %19) #7
  call void @llvm.lifetime.end.p0(i64 4, ptr %18) #7
  call void @llvm.lifetime.end.p0(i64 8, ptr %17) #7
  call void @llvm.lifetime.end.p0(i64 8, ptr %16) #7
  call void @llvm.lifetime.end.p0(i64 8, ptr %15) #7
  ret i32 %202
}