; Function Attrs: nofree norecurse nosync nounwind memory(read, argmem: readwrite, inaccessiblemem: none) uwtable
define internal noundef i32 @H5S__point_iter_get_seq_list(ptr noundef captures(none) %0, i64 noundef %1, i64 noundef %2, ptr noundef writeonly captures(none) %3, ptr noundef writeonly captures(none) %4, ptr noundef captures(none) %5, ptr noundef captures(none) %6) #11 {
  %8 = load i8, ptr @H5S_init_g, align 1, !tbaa !3, !range !7, !noundef !8
  %9 = trunc nuw i8 %8 to i1
  %10 = load i8, ptr @H5_libterm_g, align 1, !range !7
  %11 = trunc nuw i8 %10 to i1
  %12 = xor i1 %11, true
  %13 = select i1 %9, i1 true, i1 %12
  br i1 %13, label %14, label %100, !prof !9

14:                                               ; preds = %7
  %15 = getelementptr inbounds nuw i8, ptr %0, i64 528
  %16 = load i64, ptr %15, align 8, !tbaa !89
  %. = tail call i64 @llvm.umin.i64(i64 %16, i64 %2)
  %17 = getelementptr inbounds nuw i8, ptr %0, i64 8
  %18 = load i32, ptr %17, align 8, !tbaa !88
  %19 = getelementptr inbounds nuw i8, ptr %0, i64 560
  %invariant.gep = getelementptr i8, ptr %5, i64 -8
  %20 = getelementptr inbounds nuw i8, ptr %0, i64 536
  %.fr = freeze i32 %18
  %.06172 = add i32 %.fr, -1
  %21 = icmp sgt i32 %.06172, -1
  %22 = getelementptr inbounds nuw i8, ptr %0, i64 272
  %23 = getelementptr inbounds nuw i8, ptr %0, i64 16
  %24 = getelementptr inbounds nuw i8, ptr %0, i64 544
  br i1 %21, label %.split.us.preheader, label %.split

.split.us.preheader:                              ; preds = %14
  %25 = zext nneg i32 %.06172 to i64
  br label %.split.us

.split.us:                                        ; preds = %.split.us.preheader, %50
  %.066.in.us = phi ptr [ %.066.us, %50 ], [ %19, %.split.us.preheader ]
  %.062.us = phi i64 [ %.2.us, %50 ], [ 0, %.split.us.preheader ]
  %.0.us = phi i64 [ %51, %50 ], [ %., %.split.us.preheader ]
  %.066.us = load ptr, ptr %.066.in.us, align 8, !tbaa !10
  %.not.us = icmp eq ptr %.066.us, null
  br i1 %.not.us, label %.split77.us, label %.lr.ph.us

.lr.ph.us:                                        ; preds = %.split.us
  %26 = load i64, ptr %20, align 8, !tbaa !91
  %27 = getelementptr inbounds nuw i8, ptr %.066.us, i64 8
  br label %57

28:                                               ; preds = %._crit_edge.us
  %29 = load i32, ptr %24, align 8, !tbaa !73
  %30 = and i32 %29, 1
  %.not71.us = icmp eq i32 %30, 0
  br i1 %.not71.us, label %._crit_edge84, label %31

31:                                               ; preds = %28
  %gep.us = getelementptr i64, ptr %invariant.gep, i64 %.062.us
  %32 = load i64, ptr %gep.us, align 8, !tbaa !21
  %33 = icmp ult i64 %64, %32
  br i1 %33, label %.split77.us, label %._crit_edge84

._crit_edge84:                                    ; preds = %28, %31
  %34 = add i64 %.062.us, -1
  %35 = getelementptr inbounds nuw i64, ptr %5, i64 %34
  %36 = load i64, ptr %35, align 8, !tbaa !21
  %37 = getelementptr inbounds nuw i64, ptr %6, i64 %34
  %38 = load i64, ptr %37, align 8, !tbaa !21
  %39 = add i64 %38, %36
  %40 = icmp eq i64 %64, %39
  br i1 %40, label %46, label %41

41:                                               ; preds = %._crit_edge84
  %42 = getelementptr inbounds nuw i64, ptr %5, i64 %.062.us
  store i64 %64, ptr %42, align 8, !tbaa !21
  %43 = load i64, ptr %20, align 8, !tbaa !91
  %44 = getelementptr inbounds nuw i64, ptr %6, i64 %.062.us
  store i64 %43, ptr %44, align 8, !tbaa !21
  %45 = add i64 %.062.us, 1
  br label %50

46:                                               ; preds = %._crit_edge84
  %47 = add i64 %38, %26
  store i64 %47, ptr %37, align 8, !tbaa !21
  br label %50

48:                                               ; preds = %._crit_edge.us
  store i64 %64, ptr %5, align 8, !tbaa !21
  %49 = load i64, ptr %20, align 8, !tbaa !91
  store i64 %49, ptr %6, align 8, !tbaa !21
  br label %50

50:                                               ; preds = %48, %46, %41
  %.2.us = phi i64 [ %.062.us, %46 ], [ %45, %41 ], [ 1, %48 ]
  %51 = add i64 %.0.us, -1
  %52 = load ptr, ptr %.066.us, align 8, !tbaa !25
  store ptr %52, ptr %19, align 8, !tbaa !10
  %53 = load i64, ptr %15, align 8, !tbaa !89
  %54 = add i64 %53, -1
  store i64 %54, ptr %15, align 8, !tbaa !89
  %55 = icmp eq i64 %.2.us, %1
  %56 = icmp eq i64 %51, 0
  %or.cond.us = select i1 %55, i1 true, i1 %56
  br i1 %or.cond.us, label %.split77.us, label %.split.us, !llvm.loop !92

57:                                               ; preds = %.lr.ph.us, %57
  %indvars.iv = phi i64 [ %25, %.lr.ph.us ], [ %indvars.iv.next, %57 ]
  %.06474.us = phi i64 [ 0, %.lr.ph.us ], [ %64, %57 ]
  %.06573.us = phi i64 [ %26, %.lr.ph.us ], [ %67, %57 ]
  %58 = getelementptr inbounds nuw [0 x i64], ptr %27, i64 0, i64 %indvars.iv
  %59 = load i64, ptr %58, align 8, !tbaa !21
  %60 = getelementptr inbounds nuw [32 x i64], ptr %22, i64 0, i64 %indvars.iv
  %61 = load i64, ptr %60, align 8, !tbaa !21
  %62 = add nsw i64 %61, %59
  %63 = mul i64 %62, %.06573.us
  %64 = add i64 %63, %.06474.us
  %65 = getelementptr inbounds nuw [32 x i64], ptr %23, i64 0, i64 %indvars.iv
  %66 = load i64, ptr %65, align 8, !tbaa !21
  %67 = mul i64 %66, %.06573.us
  %indvars.iv.next = add nsw i64 %indvars.iv, -1
  %68 = icmp sgt i64 %indvars.iv, 0
  br i1 %68, label %57, label %._crit_edge.us, !llvm.loop !93

._crit_edge.us:                                   ; preds = %57
  %.not70.us = icmp eq i64 %.062.us, 0
  br i1 %.not70.us, label %48, label %28

.split:                                           ; preds = %14, %92
  %.066.in = phi ptr [ %.066, %92 ], [ %19, %14 ]
  %.062 = phi i64 [ %.2, %92 ], [ 0, %14 ]
  %.0 = phi i64 [ %93, %92 ], [ %., %14 ]
  %.066 = load ptr, ptr %.066.in, align 8, !tbaa !10
  %.not = icmp eq ptr %.066, null
  br i1 %.not, label %.split77.us, label %69

69:                                               ; preds = %.split
  %70 = load i64, ptr %20, align 8, !tbaa !91
  %.not70 = icmp eq i64 %.062, 0
  br i1 %.not70, label %90, label %71

71:                                               ; preds = %69
  %72 = load i32, ptr %24, align 8, !tbaa !73
  %73 = and i32 %72, 1
  %.not71 = icmp eq i32 %73, 0
  br i1 %.not71, label %._crit_edge, label %74

74:                                               ; preds = %71
  %gep = getelementptr i64, ptr %invariant.gep, i64 %.062
  %75 = load i64, ptr %gep, align 8, !tbaa !21
  %.not79 = icmp eq i64 %75, 0
  br i1 %.not79, label %._crit_edge, label %.split77.us

._crit_edge:                                      ; preds = %71, %74
  %76 = add i64 %.062, -1
  %77 = getelementptr inbounds nuw i64, ptr %5, i64 %76
  %78 = load i64, ptr %77, align 8, !tbaa !21
  %79 = getelementptr inbounds nuw i64, ptr %6, i64 %76
  %80 = load i64, ptr %79, align 8, !tbaa !21
  %81 = sub i64 0, %78
  %82 = icmp eq i64 %80, %81
  br i1 %82, label %83, label %85

83:                                               ; preds = %._crit_edge
  %84 = add i64 %80, %70
  store i64 %84, ptr %79, align 8, !tbaa !21
  br label %92

85:                                               ; preds = %._crit_edge
  %86 = getelementptr inbounds nuw i64, ptr %5, i64 %.062
  store i64 0, ptr %86, align 8, !tbaa !21
  %87 = load i64, ptr %20, align 8, !tbaa !91
  %88 = getelementptr inbounds nuw i64, ptr %6, i64 %.062
  store i64 %87, ptr %88, align 8, !tbaa !21
  %89 = add i64 %.062, 1
  br label %92

90:                                               ; preds = %69
  store i64 0, ptr %5, align 8, !tbaa !21
  %91 = load i64, ptr %20, align 8, !tbaa !91
  store i64 %91, ptr %6, align 8, !tbaa !21
  br label %92

92:                                               ; preds = %83, %85, %90
  %.2 = phi i64 [ %.062, %83 ], [ %89, %85 ], [ 1, %90 ]
  %93 = add i64 %.0, -1
  %94 = load ptr, ptr %.066, align 8, !tbaa !25
  store ptr %94, ptr %19, align 8, !tbaa !10
  %95 = load i64, ptr %15, align 8, !tbaa !89
  %96 = add i64 %95, -1
  store i64 %96, ptr %15, align 8, !tbaa !89
  %97 = icmp eq i64 %.2, %1
  %98 = icmp eq i64 %93, 0
  %or.cond = select i1 %97, i1 true, i1 %98
  br i1 %or.cond, label %.split77.us, label %.split, !llvm.loop !92

.split77.us:                                      ; preds = %.split, %74, %92, %.split.us, %31, %50
  %.us-phi = phi i64 [ %.062.us, %31 ], [ %.2.us, %50 ], [ %.062.us, %.split.us ], [ %.062, %74 ], [ %.2, %92 ], [ %.062, %.split ]
  %.us-phi78 = phi i64 [ %.0.us, %31 ], [ %51, %50 ], [ %.0.us, %.split.us ], [ %.0, %74 ], [ %93, %92 ], [ %.0, %.split ]
  store i64 %.us-phi, ptr %3, align 8, !tbaa !21
  %99 = sub i64 %., %.us-phi78
  store i64 %99, ptr %4, align 8, !tbaa !21
  br label %100

100:                                              ; preds = %.split77.us, %7
  ret i32 0
}